; Function Attrs: null_pointer_is_valid sspstrong uwtable
define internal i32 @dissect_EcDoRpcExt2_AuxInfoOut(ptr noundef %0, i32 noundef %1, i32 noundef %2, ptr noundef %3, ptr noundef %4, ptr noundef %5, ptr noundef %6) #0 {
  %8 = icmp eq i32 %2, 0
  br i1 %8, label %12, label %9

9:                                                ; preds = %7
  %10 = load i32, ptr @hf_mapi_mapi_EcDoRpcExt2_rgbAuxOut, align 4
  %11 = tail call i32 @mapi_dissect_struct_AuxInfo(ptr noundef %0, i32 noundef %1, ptr noundef %3, ptr noundef %4, ptr noundef %5, ptr noundef %6, i32 noundef %10, i32 poison)
  br label %12

12:                                               ; preds = %7, %9
  %.0 = phi i32 [ %11, %9 ], [ %1, %7 ]
  ret i32 %.0
}